; Function Attrs: nounwind uwtable
define range(i32 -45, 1) i32 @CVodeGetSensDky1(ptr noundef captures(address_is_null) %0, double noundef %1, i32 noundef %2, i32 noundef %3, ptr noundef %4) local_unnamed_addr #0 {
  %6 = icmp eq ptr %0, null
  br i1 %6, label %7, label %8

7:                                                ; preds = %5
  tail call void (ptr, i32, i32, ptr, ptr, ptr, ...) @cvProcessError(ptr noundef null, i32 noundef -21, i32 noundef 4076, ptr noundef nonnull @__func__.CVodeGetSensDky1, ptr noundef nonnull @.str, ptr noundef nonnull @.str.4)
  br label %89

8:                                                ; preds = %5
  %9 = getelementptr inbounds nuw i8, ptr %0, i64 140
  %10 = load i32, ptr %9, align 4, !tbaa !166
  %.not = icmp eq i32 %10, 1
  br i1 %.not, label %12, label %11

11:                                               ; preds = %8
  tail call void (ptr, i32, i32, ptr, ptr, ptr, ...) @cvProcessError(ptr noundef nonnull %0, i32 noundef -40, i32 noundef 4085, ptr noundef nonnull @__func__.CVodeGetSensDky1, ptr noundef nonnull @.str, ptr noundef nonnull @.str.23)
  br label %89

12:                                               ; preds = %8
  %13 = icmp eq ptr %4, null
  br i1 %13, label %14, label %15

14:                                               ; preds = %12
  tail call void (ptr, i32, i32, ptr, ptr, ptr, ...) @cvProcessError(ptr noundef nonnull %0, i32 noundef -26, i32 noundef 4093, ptr noundef nonnull @__func__.CVodeGetSensDky1, ptr noundef nonnull @.str, ptr noundef nonnull @.str.60)
  br label %89

15:                                               ; preds = %12
  %16 = icmp slt i32 %2, 0
  br i1 %16, label %21, label %17

17:                                               ; preds = %15
  %18 = getelementptr inbounds nuw i8, ptr %0, i64 960
  %19 = load i32, ptr %18, align 8, !tbaa !108
  %20 = icmp sgt i32 %2, %19
  br i1 %20, label %21, label %22

21:                                               ; preds = %17, %15
  tail call void (ptr, i32, i32, ptr, ptr, ptr, ...) @cvProcessError(ptr noundef nonnull %0, i32 noundef -24, i32 noundef 4101, ptr noundef nonnull @__func__.CVodeGetSensDky1, ptr noundef nonnull @.str, ptr noundef nonnull @.str.61)
  br label %89

22:                                               ; preds = %17
  %23 = icmp slt i32 %3, 0
  br i1 %23, label %27, label %24

24:                                               ; preds = %22
  %25 = getelementptr inbounds nuw i8, ptr %0, i64 144
  %26 = load i32, ptr %25, align 8, !tbaa !156
  %.not78 = icmp slt i32 %3, %26
  br i1 %.not78, label %28, label %27

27:                                               ; preds = %24, %22
  tail call void (ptr, i32, i32, ptr, ptr, ptr, ...) @cvProcessError(ptr noundef nonnull %0, i32 noundef -45, i32 noundef 4108, ptr noundef nonnull @__func__.CVodeGetSensDky1, ptr noundef nonnull @.str, ptr noundef nonnull @.str.64)
  br label %89

28:                                               ; preds = %24
  %29 = getelementptr inbounds nuw i8, ptr %0, i64 8
  %30 = load double, ptr %29, align 8, !tbaa !21
  %31 = fmul double %30, 1.000000e+02
  %32 = getelementptr inbounds nuw i8, ptr %0, i64 1032
  %33 = load double, ptr %32, align 8, !tbaa !106
  %34 = tail call double @llvm.fabs.f64(double %33)
  %35 = getelementptr inbounds nuw i8, ptr %0, i64 2064
  %36 = load double, ptr %35, align 8, !tbaa !113
  %37 = tail call double @llvm.fabs.f64(double %36)
  %38 = fadd double %34, %37
  %39 = fmul double %31, %38
  %40 = fcmp olt double %36, 0.000000e+00
  %41 = fneg double %39
  %.070 = select i1 %40, double %41, double %39
  %42 = fsub double %33, %36
  %43 = fsub double %42, %.070
  %44 = fadd double %33, %.070
  %45 = fsub double %1, %43
  %46 = fsub double %1, %44
  %47 = fmul double %45, %46
  %48 = fcmp ogt double %47, 0.000000e+00
  br i1 %48, label %49, label %.lr.ph93

49:                                               ; preds = %28
  tail call void (ptr, i32, i32, ptr, ptr, ptr, ...) @cvProcessError(ptr noundef nonnull %0, i32 noundef -25, i32 noundef 4121, ptr noundef nonnull @__func__.CVodeGetSensDky1, ptr noundef nonnull @.str, ptr noundef nonnull @.str.62)
  br label %89

.lr.ph93:                                         ; preds = %28
  %50 = fsub double %1, %33
  %51 = getelementptr inbounds nuw i8, ptr %0, i64 992
  %52 = load double, ptr %51, align 8, !tbaa !233
  %53 = fdiv double %50, %52
  %54 = getelementptr inbounds nuw i8, ptr %0, i64 2640
  %55 = load ptr, ptr %54, align 8, !tbaa !103
  %56 = getelementptr inbounds nuw i8, ptr %0, i64 648
  %57 = zext nneg i32 %3 to i64
  %58 = getelementptr inbounds nuw i8, ptr %0, i64 2648
  %59 = load ptr, ptr %58, align 8, !tbaa !104
  %60 = sub nsw i32 %19, %2
  %61 = add nuw i32 %19, 1
  %62 = sub i32 %61, %2
  %wide.trip.count = zext i32 %62 to i64
  %.not81.not82.not = icmp eq i32 %2, 0
  br label %63

63:                                               ; preds = %.lr.ph93, %74
  %indvars.iv97 = phi i64 [ 0, %.lr.ph93 ], [ %indvars.iv.next98, %74 ]
  %indvars.iv = phi i32 [ %60, %.lr.ph93 ], [ %indvars.iv.next, %74 ]
  %.07290 = phi i32 [ %19, %.lr.ph93 ], [ %81, %74 ]
  %64 = getelementptr inbounds nuw double, ptr %55, i64 %indvars.iv97
  store double 1.000000e+00, ptr %64, align 8, !tbaa !69
  %65 = sub nsw i32 %.07290, %2
  br i1 %.not81.not82.not, label %.preheader, label %.lr.ph

..preheader_crit_edge:                            ; preds = %.lr.ph
  store double %69, ptr %64, align 8, !tbaa !69
  br label %.preheader

.preheader:                                       ; preds = %..preheader_crit_edge, %63
  %.promoted87 = phi double [ %69, %..preheader_crit_edge ], [ 1.000000e+00, %63 ]
  %66 = icmp sgt i32 %65, 0
  br i1 %66, label %.lr.ph86, label %74

.lr.ph:                                           ; preds = %63, %.lr.ph
  %67 = phi double [ %69, %.lr.ph ], [ 1.000000e+00, %63 ]
  %.07383 = phi i32 [ %70, %.lr.ph ], [ %.07290, %63 ]
  %68 = sitofp i32 %.07383 to double
  %69 = fmul double %67, %68
  %70 = add nsw i32 %.07383, -1
  %.not81.not = icmp sgt i32 %70, %65
  br i1 %.not81.not, label %.lr.ph, label %..preheader_crit_edge

.lr.ph86:                                         ; preds = %.preheader, %.lr.ph86
  %71 = phi double [ %72, %.lr.ph86 ], [ %.promoted87, %.preheader ]
  %.185 = phi i32 [ %73, %.lr.ph86 ], [ 0, %.preheader ]
  %72 = fmul double %53, %71
  %73 = add nuw nsw i32 %.185, 1
  %exitcond.not = icmp eq i32 %73, %indvars.iv
  br i1 %exitcond.not, label %._crit_edge, label %.lr.ph86

._crit_edge:                                      ; preds = %.lr.ph86
  store double %72, ptr %64, align 8, !tbaa !69
  br label %74

74:                                               ; preds = %._crit_edge, %.preheader
  %75 = zext nneg i32 %.07290 to i64
  %76 = getelementptr inbounds nuw [13 x ptr], ptr %56, i64 0, i64 %75
  %77 = load ptr, ptr %76, align 8, !tbaa !160
  %78 = getelementptr inbounds nuw ptr, ptr %77, i64 %57
  %79 = load ptr, ptr %78, align 8, !tbaa !65
  %80 = getelementptr inbounds nuw ptr, ptr %59, i64 %indvars.iv97
  store ptr %79, ptr %80, align 8, !tbaa !65
  %indvars.iv.next98 = add nuw nsw i64 %indvars.iv97, 1
  %81 = add nsw i32 %.07290, -1
  %indvars.iv.next = add i32 %indvars.iv, -1
  %exitcond100.not = icmp eq i64 %indvars.iv.next98, %wide.trip.count
  br i1 %exitcond100.not, label %._crit_edge94, label %63

._crit_edge94:                                    ; preds = %74
  %82 = tail call i32 @N_VLinearCombination(i32 noundef %62, ptr noundef nonnull %55, ptr noundef nonnull %59, ptr noundef nonnull %4) #13
  %.not80 = icmp eq i32 %82, 0
  br i1 %.not80, label %83, label %89

83:                                               ; preds = %._crit_edge94
  %84 = icmp eq i32 %2, 0
  br i1 %84, label %89, label %85

85:                                               ; preds = %83
  %86 = load double, ptr %51, align 8, !tbaa !233
  %87 = sub nsw i32 0, %2
  %88 = tail call double @SUNRpowerI(double noundef %86, i32 noundef %87) #13
  tail call void @N_VScale(double noundef %88, ptr noundef nonnull %4, ptr noundef nonnull %4) #13
  br label %89

89:                                               ; preds = %83, %._crit_edge94, %85, %49, %27, %21, %14, %11, %7
  %.0 = phi i32 [ -21, %7 ], [ -40, %11 ], [ -26, %14 ], [ -24, %21 ], [ -45, %27 ], [ -25, %49 ], [ 0, %85 ], [ -28, %._crit_edge94 ], [ 0, %83 ]
  ret i32 %.0
}